target datalayout = "e-m:e-p270:32:32-p271:32:32-p272:64:64-i64:64-i128:128-f80:128-n8:16:32:64-S128"
target triple = "x86_64-pc-linux-gnu"

; Function Attrs: inlinehint nounwind uwtable
define internal void @Copy(ptr noalias noundef %0, ptr noalias noundef %1, i32 noundef %2, i32 noundef %3) #4 {
  %5 = alloca ptr, align 8
  %6 = alloca ptr, align 8
  %7 = alloca i32, align 4
  %8 = alloca i32, align 4
  %9 = alloca i32, align 4
  store ptr %0, ptr %5, align 8, !tbaa !18
  store ptr %1, ptr %6, align 8, !tbaa !18
  store i32 %2, ptr %7, align 4, !tbaa !9
  store i32 %3, ptr %8, align 4, !tbaa !9
  call void @llvm.lifetime.start.p0(i64 4, ptr %9) #8
  store i32 0, ptr %9, align 4, !tbaa !9
  br label %10

10:                                               ; preds = %23, %4
  %11 = load i32, ptr %9, align 4, !tbaa !9
  %12 = load i32, ptr %8, align 4, !tbaa !9
  %13 = icmp slt i32 %11, %12
  br i1 %13, label %14, label %26

14:                                               ; preds = %10
  %15 = load ptr, ptr %6, align 8, !tbaa !18
  %16 = load ptr, ptr %5, align 8, !tbaa !18
  %17 = load i32, ptr %7, align 4, !tbaa !9
  %18 = sext i32 %17 to i64
  call void @llvm.memcpy.p0.p0.i64(ptr align 1 %15, ptr align 1 %16, i64 %18, i1 false)
  %19 = load ptr, ptr %5, align 8, !tbaa !18
  %20 = getelementptr inbounds i8, ptr %19, i64 32
  store ptr %20, ptr %5, align 8, !tbaa !18
  %21 = load ptr, ptr %6, align 8, !tbaa !18
  %22 = getelementptr inbounds i8, ptr %21, i64 32
  store ptr %22, ptr %6, align 8, !tbaa !18
  br label %23

23:                                               ; preds = %14
  %24 = load i32, ptr %9, align 4, !tbaa !9
  %25 = add nsw i32 %24, 1
  store i32 %25, ptr %9, align 4, !tbaa !9
  br label %10, !llvm.loop !56

26:                                               ; preds = %10
  call void @llvm.lifetime.end.p0(i64 4, ptr %9) #8
  ret void
}

; Function Attrs: nounwind uwtable
define internal void @Copy16x8_C(ptr noalias noundef %0, ptr noalias noundef %1) #0 {
  %3 = alloca ptr, align 8
  %4 = alloca ptr, align 8
  store ptr %0, ptr %3, align 8, !tbaa !18
  store ptr %1, ptr %4, align 8, !tbaa !18
  %5 = load ptr, ptr %3, align 8, !tbaa !18
  %6 = load ptr, ptr %4, align 8, !tbaa !18
  call void @Copy(ptr noundef %5, ptr noundef %6, i32 noundef 16, i32 noundef 8)
  ret void
}