; Function Attrs: nofree norecurse nosync nounwind memory(argmem: readwrite) uwtable
define internal void @Copy16x8_C(ptr noalias noundef readonly captures(none) %0, ptr noalias noundef writeonly captures(none) %1) #0 {
  br label %3

3:                                                ; preds = %3, %2
  %.011.i = phi i32 [ 0, %2 ], [ %6, %3 ]
  %.0710.i = phi ptr [ %0, %2 ], [ %4, %3 ]
  %.089.i = phi ptr [ %1, %2 ], [ %5, %3 ]
  tail call void @llvm.memcpy.p0.p0.i64(ptr noundef nonnull align 1 dereferenceable(16) %.089.i, ptr noundef nonnull align 1 dereferenceable(16) %.0710.i, i64 16, i1 false), !alias.scope !281
  %4 = getelementptr inbounds nuw i8, ptr %.0710.i, i64 32
  %5 = getelementptr inbounds nuw i8, ptr %.089.i, i64 32
  %6 = add nuw nsw i32 %.011.i, 1
  %exitcond.not.i = icmp eq i32 %6, 8
  br i1 %exitcond.not.i, label %Copy.exit, label %3, !llvm.loop !280

Copy.exit:                                        ; preds = %3
  ret void
}